; Function Attrs: mustprogress uwtable
define noundef i64 @_ZN8proxygen26PassThroughHTTPCodecFilter20generatePushPriorityERN5folly10IOBufQueueEmNS_12HTTPPriorityE(ptr nocapture noundef nonnull readonly align 8 dereferenceable(72) %this, ptr noundef nonnull align 8 dereferenceable(72) %writeBuf, i64 noundef %pushId, ptr nocapture noundef readonly %priority) unnamed_addr #3 align 2 personality ptr @__gxx_personality_v0 {
entry:
  %agg.tmp = alloca %"struct.proxygen::HTTPPriority", align 8
  %call_ = getelementptr inbounds i8, ptr %this, i64 24
  %0 = load ptr, ptr %call_, align 8
  store ptr getelementptr inbounds ({ [4 x ptr] }, ptr @_ZTVN8proxygen12HTTPPriorityE, i64 0, i32 0, i64 2), ptr %agg.tmp, align 8
  %urgency.i = getelementptr inbounds i8, ptr %agg.tmp, i64 8
  %urgency2.i = getelementptr inbounds i8, ptr %priority, i64 8
  %1 = load i64, ptr %urgency2.i, align 8
  store i64 %1, ptr %urgency.i, align 8
  %vtable = load ptr, ptr %0, align 8
  %vfn = getelementptr inbounds i8, ptr %vtable, i64 328
  %2 = load ptr, ptr %vfn, align 8
  %call = call noundef i64 %2(ptr noundef nonnull align 8 dereferenceable(8) %0, ptr noundef nonnull align 8 dereferenceable(72) %writeBuf, i64 noundef %pushId, ptr noundef nonnull %agg.tmp)
  ret i64 %call
}